; Function Attrs: mustprogress nofree norecurse nosync nounwind willreturn memory(read, inaccessiblemem: none) uwtable
define noundef zeroext i1 @_ZNK32pxrInternal_v0_24__pxrReserved__23PcpLayerStackIdentifiercvbEv(ptr nocapture noundef nonnull readonly align 8 dereferenceable(80) %0) local_unnamed_addr #4 align 2 {
  %2 = getelementptr inbounds nuw i8, ptr %0, i64 8
  %3 = load ptr, ptr %2, align 8
  %.not.i.i.i.i.i = icmp eq ptr %3, null
  br i1 %.not.i.i.i.i.i, label %_ZNK32pxrInternal_v0_24__pxrReserved__15TfWeakPtrFacadeINS_9TfWeakPtrENS_8SdfLayerEEcvMS3_KFPS2_vEEv.exit, label %_ZNK32pxrInternal_v0_24__pxrReserved__8TfRefPtrINS_10Tf_RemnantEEptEv.exit.i.i.i.i

_ZNK32pxrInternal_v0_24__pxrReserved__8TfRefPtrINS_10Tf_RemnantEEptEv.exit.i.i.i.i: ; preds = %1
  %4 = getelementptr inbounds nuw i8, ptr %3, i64 14
  %5 = load i8, ptr %4, align 2
  %6 = trunc i8 %5 to i1
  %7 = load ptr, ptr %0, align 8
  %8 = icmp ne ptr %7, null
  %.not1.i = select i1 %6, i1 %8, i1 false
  br label %_ZNK32pxrInternal_v0_24__pxrReserved__15TfWeakPtrFacadeINS_9TfWeakPtrENS_8SdfLayerEEcvMS3_KFPS2_vEEv.exit

_ZNK32pxrInternal_v0_24__pxrReserved__15TfWeakPtrFacadeINS_9TfWeakPtrENS_8SdfLayerEEcvMS3_KFPS2_vEEv.exit: ; preds = %1, %_ZNK32pxrInternal_v0_24__pxrReserved__8TfRefPtrINS_10Tf_RemnantEEptEv.exit.i.i.i.i
  %.0.i.i.i.i = phi i1 [ false, %1 ], [ %.not1.i, %_ZNK32pxrInternal_v0_24__pxrReserved__8TfRefPtrINS_10Tf_RemnantEEptEv.exit.i.i.i.i ]
  ret i1 %.0.i.i.i.i
}